target datalayout = "e-m:e-p270:32:32-p271:32:32-p272:64:64-i64:64-i128:128-f80:128-n8:16:32:64-S128"
target triple = "x86_64-pc-linux-gnu"

%struct.expert_field = type { i32, i32 }

@hf_mbim_context_context_id = internal global i32 0, align 4
@hf_mbim_context_access_string_offset = internal global i32 0, align 4
@hf_mbim_context_access_string_size = internal global i32 0, align 4
@hf_mbim_context_user_name_offset = internal global i32 0, align 4
@hf_mbim_context_user_name_size = internal global i32 0, align 4
@hf_mbim_context_password_offset = internal global i32 0, align 4
@hf_mbim_context_password_size = internal global i32 0, align 4
@hf_mbim_context_compression = internal global i32 0, align 4
@hf_mbim_context_auth_protocol = internal global i32 0, align 4
@hf_mbim_context_provider_id_offset = internal global i32 0, align 4
@hf_mbim_context_provider_id_size = internal global i32 0, align 4
@hf_mbim_context_access_string = internal global i32 0, align 4
@hf_mbim_context_user_name = internal global i32 0, align 4
@hf_mbim_context_password = internal global i32 0, align 4
@hf_mbim_context_provider_id = internal global i32 0, align 4
@ei_mbim_oversized_string = internal global %struct.expert_field zeroinitializer, align 4

; Function Attrs: nounwind uwtable
define internal void @mbim_dissect_context(ptr noundef %0, ptr noundef %1, ptr noundef %2, i32 noundef %3, i32 noundef %4) #0 {
  %6 = alloca ptr, align 8
  %7 = alloca ptr, align 8
  %8 = alloca ptr, align 8
  %9 = alloca i32, align 4
  %10 = alloca i32, align 4
  %11 = alloca i32, align 4
  %12 = alloca i32, align 4
  %13 = alloca i32, align 4
  %14 = alloca i32, align 4
  %15 = alloca i32, align 4
  %16 = alloca i32, align 4
  %17 = alloca i32, align 4
  %18 = alloca i32, align 4
  %19 = alloca i32, align 4
  %20 = alloca ptr, align 8
  store ptr %0, ptr %6, align 8
  store ptr %1, ptr %7, align 8
  store ptr %2, ptr %8, align 8
  store i32 %3, ptr %9, align 4
  store i32 %4, ptr %10, align 4
  store i32 0, ptr %18, align 4
  store i32 0, ptr %19, align 4
  %21 = load i32, ptr %9, align 4
  store i32 %21, ptr %11, align 4
  %22 = load ptr, ptr %8, align 8
  %23 = load i32, ptr @hf_mbim_context_context_id, align 4
  %24 = load ptr, ptr %6, align 8
  %25 = load i32, ptr %9, align 4
  %26 = call ptr @proto_tree_add_item(ptr noundef %22, i32 noundef %23, ptr noundef %24, i32 noundef %25, i32 noundef 4, i32 noundef -2147483648)
  %27 = load i32, ptr %9, align 4
  %28 = add i32 %27, 4
  store i32 %28, ptr %9, align 4
  %29 = load ptr, ptr %6, align 8
  %30 = load ptr, ptr %7, align 8
  %31 = load ptr, ptr %8, align 8
  %32 = call zeroext i8 @mbim_dissect_context_type_uuid(ptr noundef %29, ptr noundef %30, ptr noundef %31, ptr noundef %9)
  %33 = load ptr, ptr %8, align 8
  %34 = load i32, ptr @hf_mbim_context_access_string_offset, align 4
  %35 = load ptr, ptr %6, align 8
  %36 = load i32, ptr %9, align 4
  %37 = call ptr @proto_tree_add_item_ret_uint(ptr noundef %33, i32 noundef %34, ptr noundef %35, i32 noundef %36, i32 noundef 4, i32 noundef -2147483648, ptr noundef %12)
  %38 = load i32, ptr %9, align 4
  %39 = add i32 %38, 4
  store i32 %39, ptr %9, align 4
  %40 = load ptr, ptr %8, align 8
  %41 = load i32, ptr @hf_mbim_context_access_string_size, align 4
  %42 = load ptr, ptr %6, align 8
  %43 = load i32, ptr %9, align 4
  %44 = call ptr @proto_tree_add_item_ret_uint(ptr noundef %40, i32 noundef %41, ptr noundef %42, i32 noundef %43, i32 noundef 4, i32 noundef -2147483648, ptr noundef %13)
  %45 = load i32, ptr %9, align 4
  %46 = add i32 %45, 4
  store i32 %46, ptr %9, align 4
  %47 = load ptr, ptr %8, align 8
  %48 = load i32, ptr @hf_mbim_context_user_name_offset, align 4
  %49 = load ptr, ptr %6, align 8
  %50 = load i32, ptr %9, align 4
  %51 = call ptr @proto_tree_add_item_ret_uint(ptr noundef %47, i32 noundef %48, ptr noundef %49, i32 noundef %50, i32 noundef 4, i32 noundef -2147483648, ptr noundef %14)
  %52 = load i32, ptr %9, align 4
  %53 = add i32 %52, 4
  store i32 %53, ptr %9, align 4
  %54 = load ptr, ptr %8, align 8
  %55 = load i32, ptr @hf_mbim_context_user_name_size, align 4
  %56 = load ptr, ptr %6, align 8
  %57 = load i32, ptr %9, align 4
  %58 = call ptr @proto_tree_add_item_ret_uint(ptr noundef %54, i32 noundef %55, ptr noundef %56, i32 noundef %57, i32 noundef 4, i32 noundef -2147483648, ptr noundef %15)
  %59 = load i32, ptr %9, align 4
  %60 = add i32 %59, 4
  store i32 %60, ptr %9, align 4
  %61 = load ptr, ptr %8, align 8
  %62 = load i32, ptr @hf_mbim_context_password_offset, align 4
  %63 = load ptr, ptr %6, align 8
  %64 = load i32, ptr %9, align 4
  %65 = call ptr @proto_tree_add_item_ret_uint(ptr noundef %61, i32 noundef %62, ptr noundef %63, i32 noundef %64, i32 noundef 4, i32 noundef -2147483648, ptr noundef %16)
  %66 = load i32, ptr %9, align 4
  %67 = add i32 %66, 4
  store i32 %67, ptr %9, align 4
  %68 = load ptr, ptr %8, align 8
  %69 = load i32, ptr @hf_mbim_context_password_size, align 4
  %70 = load ptr, ptr %6, align 8
  %71 = load i32, ptr %9, align 4
  %72 = call ptr @proto_tree_add_item_ret_uint(ptr noundef %68, i32 noundef %69, ptr noundef %70, i32 noundef %71, i32 noundef 4, i32 noundef -2147483648, ptr noundef %17)
  %73 = load i32, ptr %9, align 4
  %74 = add i32 %73, 4
  store i32 %74, ptr %9, align 4
  %75 = load ptr, ptr %8, align 8
  %76 = load i32, ptr @hf_mbim_context_compression, align 4
  %77 = load ptr, ptr %6, align 8
  %78 = load i32, ptr %9, align 4
  %79 = call ptr @proto_tree_add_item(ptr noundef %75, i32 noundef %76, ptr noundef %77, i32 noundef %78, i32 noundef 4, i32 noundef -2147483648)
  %80 = load i32, ptr %9, align 4
  %81 = add i32 %80, 4
  store i32 %81, ptr %9, align 4
  %82 = load ptr, ptr %8, align 8
  %83 = load i32, ptr @hf_mbim_context_auth_protocol, align 4
  %84 = load ptr, ptr %6, align 8
  %85 = load i32, ptr %9, align 4
  %86 = call ptr @proto_tree_add_item(ptr noundef %82, i32 noundef %83, ptr noundef %84, i32 noundef %85, i32 noundef 4, i32 noundef -2147483648)
  %87 = load i32, ptr %9, align 4
  %88 = add i32 %87, 4
  store i32 %88, ptr %9, align 4
  %89 = load i32, ptr %10, align 4
  %90 = icmp ne i32 %89, 0
  br i1 %90, label %91, label %106

91:                                               ; preds = %5
  %92 = load ptr, ptr %8, align 8
  %93 = load i32, ptr @hf_mbim_context_provider_id_offset, align 4
  %94 = load ptr, ptr %6, align 8
  %95 = load i32, ptr %9, align 4
  %96 = call ptr @proto_tree_add_item_ret_uint(ptr noundef %92, i32 noundef %93, ptr noundef %94, i32 noundef %95, i32 noundef 4, i32 noundef -2147483648, ptr noundef %18)
  %97 = load i32, ptr %9, align 4
  %98 = add i32 %97, 4
  store i32 %98, ptr %9, align 4
  %99 = load ptr, ptr %8, align 8
  %100 = load i32, ptr @hf_mbim_context_provider_id_size, align 4
  %101 = load ptr, ptr %6, align 8
  %102 = load i32, ptr %9, align 4
  %103 = call ptr @proto_tree_add_item_ret_uint(ptr noundef %99, i32 noundef %100, ptr noundef %101, i32 noundef %102, i32 noundef 4, i32 noundef -2147483648, ptr noundef %19)
  %104 = load i32, ptr %9, align 4
  %105 = add i32 %104, 4
  store i32 %105, ptr %9, align 4
  br label %106

106:                                              ; preds = %91, %5
  %107 = load i32, ptr %12, align 4
  %108 = icmp ne i32 %107, 0
  br i1 %108, label %109, label %128

109:                                              ; preds = %106
  %110 = load i32, ptr %13, align 4
  %111 = icmp ne i32 %110, 0
  br i1 %111, label %112, label %128

112:                                              ; preds = %109
  %113 = load ptr, ptr %8, align 8
  %114 = load i32, ptr @hf_mbim_context_access_string, align 4
  %115 = load ptr, ptr %6, align 8
  %116 = load i32, ptr %11, align 4
  %117 = load i32, ptr %12, align 4
  %118 = add i32 %116, %117
  %119 = load i32, ptr %13, align 4
  %120 = call ptr @proto_tree_add_item(ptr noundef %113, i32 noundef %114, ptr noundef %115, i32 noundef %118, i32 noundef %119, i32 noundef -2147483644)
  store ptr %120, ptr %20, align 8
  %121 = load i32, ptr %13, align 4
  %122 = icmp ugt i32 %121, 200
  br i1 %122, label %123, label %127

123:                                              ; preds = %112
  %124 = load ptr, ptr %7, align 8
  %125 = load ptr, ptr %20, align 8
  %126 = call ptr @expert_add_info(ptr noundef %124, ptr noundef %125, ptr noundef @ei_mbim_oversized_string)
  br label %127

127:                                              ; preds = %123, %112
  br label %128

128:                                              ; preds = %127, %109, %106
  %129 = load i32, ptr %14, align 4
  %130 = icmp ne i32 %129, 0
  br i1 %130, label %131, label %150

131:                                              ; preds = %128
  %132 = load i32, ptr %15, align 4
  %133 = icmp ne i32 %132, 0
  br i1 %133, label %134, label %150

134:                                              ; preds = %131
  %135 = load ptr, ptr %8, align 8
  %136 = load i32, ptr @hf_mbim_context_user_name, align 4
  %137 = load ptr, ptr %6, align 8
  %138 = load i32, ptr %11, align 4
  %139 = load i32, ptr %14, align 4
  %140 = add i32 %138, %139
  %141 = load i32, ptr %15, align 4
  %142 = call ptr @proto_tree_add_item(ptr noundef %135, i32 noundef %136, ptr noundef %137, i32 noundef %140, i32 noundef %141, i32 noundef -2147483644)
  store ptr %142, ptr %20, align 8
  %143 = load i32, ptr %15, align 4
  %144 = icmp ugt i32 %143, 510
  br i1 %144, label %145, label %149

145:                                              ; preds = %134
  %146 = load ptr, ptr %7, align 8
  %147 = load ptr, ptr %20, align 8
  %148 = call ptr @expert_add_info(ptr noundef %146, ptr noundef %147, ptr noundef @ei_mbim_oversized_string)
  br label %149

149:                                              ; preds = %145, %134
  br label %150

150:                                              ; preds = %149, %131, %128
  %151 = load i32, ptr %16, align 4
  %152 = icmp ne i32 %151, 0
  br i1 %152, label %153, label %172

153:                                              ; preds = %150
  %154 = load i32, ptr %17, align 4
  %155 = icmp ne i32 %154, 0
  br i1 %155, label %156, label %172

156:                                              ; preds = %153
  %157 = load ptr, ptr %8, align 8
  %158 = load i32, ptr @hf_mbim_context_password, align 4
  %159 = load ptr, ptr %6, align 8
  %160 = load i32, ptr %11, align 4
  %161 = load i32, ptr %16, align 4
  %162 = add i32 %160, %161
  %163 = load i32, ptr %17, align 4
  %164 = call ptr @proto_tree_add_item(ptr noundef %157, i32 noundef %158, ptr noundef %159, i32 noundef %162, i32 noundef %163, i32 noundef -2147483644)
  store ptr %164, ptr %20, align 8
  %165 = load i32, ptr %17, align 4
  %166 = icmp ugt i32 %165, 510
  br i1 %166, label %167, label %171

167:                                              ; preds = %156
  %168 = load ptr, ptr %7, align 8
  %169 = load ptr, ptr %20, align 8
  %170 = call ptr @expert_add_info(ptr noundef %168, ptr noundef %169, ptr noundef @ei_mbim_oversized_string)
  br label %171

171:                                              ; preds = %167, %156
  br label %172

172:                                              ; preds = %171, %153, %150
  %173 = load i32, ptr %18, align 4
  %174 = icmp ne i32 %173, 0
  br i1 %174, label %175, label %194

175:                                              ; preds = %172
  %176 = load i32, ptr %19, align 4
  %177 = icmp ne i32 %176, 0
  br i1 %177, label %178, label %194

178:                                              ; preds = %175
  %179 = load ptr, ptr %8, align 8
  %180 = load i32, ptr @hf_mbim_context_provider_id, align 4
  %181 = load ptr, ptr %6, align 8
  %182 = load i32, ptr %11, align 4
  %183 = load i32, ptr %18, align 4
  %184 = add i32 %182, %183
  %185 = load i32, ptr %19, align 4
  %186 = call ptr @proto_tree_add_item(ptr noundef %179, i32 noundef %180, ptr noundef %181, i32 noundef %184, i32 noundef %185, i32 noundef -2147483644)
  store ptr %186, ptr %20, align 8
  %187 = load i32, ptr %19, align 4
  %188 = icmp ugt i32 %187, 12
  br i1 %188, label %189, label %193

189:                                              ; preds = %178
  %190 = load ptr, ptr %7, align 8
  %191 = load ptr, ptr %20, align 8
  %192 = call ptr @expert_add_info(ptr noundef %190, ptr noundef %191, ptr noundef @ei_mbim_oversized_string)
  br label %193

193:                                              ; preds = %189, %178
  br label %194

194:                                              ; preds = %193, %175, %172
  ret void
}