; Function Attrs: nounwind uwtable
define internal fastcc void @mbim_dissect_context(ptr noundef %0, ptr noundef %1, ptr noundef %2, i32 noundef %3, i32 noundef range(i32 0, 2) %4) unnamed_addr #0 {
  %6 = alloca i32, align 4
  %7 = alloca i32, align 4
  %8 = alloca i32, align 4
  %9 = alloca i32, align 4
  %10 = alloca i32, align 4
  %11 = alloca i32, align 4
  %12 = alloca i32, align 4
  %13 = alloca i32, align 4
  %14 = alloca i32, align 4
  store i32 0, ptr %13, align 4
  store i32 0, ptr %14, align 4
  %15 = load i32, ptr @hf_mbim_context_context_id, align 4
  %16 = tail call ptr @proto_tree_add_item(ptr noundef %2, i32 noundef %15, ptr noundef %0, i32 noundef %3, i32 noundef 4, i32 noundef -2147483648) #10
  %17 = add i32 %3, 4
  store i32 %17, ptr %6, align 4
  call fastcc void @mbim_dissect_context_type_uuid(ptr noundef %0, ptr noundef %1, ptr noundef %2, ptr noundef %6)
  %18 = load i32, ptr @hf_mbim_context_access_string_offset, align 4
  %19 = load i32, ptr %6, align 4
  %20 = call ptr @proto_tree_add_item_ret_uint(ptr noundef %2, i32 noundef %18, ptr noundef %0, i32 noundef %19, i32 noundef 4, i32 noundef -2147483648, ptr noundef nonnull %7) #10
  %21 = add i32 %19, 4
  %22 = load i32, ptr @hf_mbim_context_access_string_size, align 4
  %23 = call ptr @proto_tree_add_item_ret_uint(ptr noundef %2, i32 noundef %22, ptr noundef %0, i32 noundef %21, i32 noundef 4, i32 noundef -2147483648, ptr noundef nonnull %8) #10
  %24 = add i32 %19, 8
  %25 = load i32, ptr @hf_mbim_context_user_name_offset, align 4
  %26 = call ptr @proto_tree_add_item_ret_uint(ptr noundef %2, i32 noundef %25, ptr noundef %0, i32 noundef %24, i32 noundef 4, i32 noundef -2147483648, ptr noundef nonnull %9) #10
  %27 = add i32 %19, 12
  %28 = load i32, ptr @hf_mbim_context_user_name_size, align 4
  %29 = call ptr @proto_tree_add_item_ret_uint(ptr noundef %2, i32 noundef %28, ptr noundef %0, i32 noundef %27, i32 noundef 4, i32 noundef -2147483648, ptr noundef nonnull %10) #10
  %30 = add i32 %19, 16
  %31 = load i32, ptr @hf_mbim_context_password_offset, align 4
  %32 = call ptr @proto_tree_add_item_ret_uint(ptr noundef %2, i32 noundef %31, ptr noundef %0, i32 noundef %30, i32 noundef 4, i32 noundef -2147483648, ptr noundef nonnull %11) #10
  %33 = add i32 %19, 20
  %34 = load i32, ptr @hf_mbim_context_password_size, align 4
  %35 = call ptr @proto_tree_add_item_ret_uint(ptr noundef %2, i32 noundef %34, ptr noundef %0, i32 noundef %33, i32 noundef 4, i32 noundef -2147483648, ptr noundef nonnull %12) #10
  %36 = add i32 %19, 24
  %37 = load i32, ptr @hf_mbim_context_compression, align 4
  %38 = call ptr @proto_tree_add_item(ptr noundef %2, i32 noundef %37, ptr noundef %0, i32 noundef %36, i32 noundef 4, i32 noundef -2147483648) #10
  %39 = add i32 %19, 28
  %40 = load i32, ptr @hf_mbim_context_auth_protocol, align 4
  %41 = call ptr @proto_tree_add_item(ptr noundef %2, i32 noundef %40, ptr noundef %0, i32 noundef %39, i32 noundef 4, i32 noundef -2147483648) #10
  %.not = icmp eq i32 %4, 0
  br i1 %.not, label %49, label %42

42:                                               ; preds = %5
  %43 = add i32 %19, 32
  %44 = load i32, ptr @hf_mbim_context_provider_id_offset, align 4
  %45 = call ptr @proto_tree_add_item_ret_uint(ptr noundef %2, i32 noundef %44, ptr noundef %0, i32 noundef %43, i32 noundef 4, i32 noundef -2147483648, ptr noundef nonnull %13) #10
  %46 = add i32 %19, 36
  %47 = load i32, ptr @hf_mbim_context_provider_id_size, align 4
  %48 = call ptr @proto_tree_add_item_ret_uint(ptr noundef %2, i32 noundef %47, ptr noundef %0, i32 noundef %46, i32 noundef 4, i32 noundef -2147483648, ptr noundef nonnull %14) #10
  br label %49

49:                                               ; preds = %42, %5
  %50 = load i32, ptr %7, align 4
  %51 = icmp ne i32 %50, 0
  %52 = load i32, ptr %8, align 4
  %53 = icmp ne i32 %52, 0
  %or.cond = select i1 %51, i1 %53, i1 false
  br i1 %or.cond, label %54, label %62

54:                                               ; preds = %49
  %55 = load i32, ptr @hf_mbim_context_access_string, align 4
  %56 = add i32 %50, %3
  %57 = call ptr @proto_tree_add_item(ptr noundef %2, i32 noundef %55, ptr noundef %0, i32 noundef %56, i32 noundef %52, i32 noundef -2147483644) #10
  %58 = load i32, ptr %8, align 4
  %59 = icmp ugt i32 %58, 200
  br i1 %59, label %60, label %62

60:                                               ; preds = %54
  %61 = call ptr @expert_add_info(ptr noundef %1, ptr noundef %57, ptr noundef nonnull @ei_mbim_oversized_string) #10
  br label %62

62:                                               ; preds = %54, %60, %49
  %63 = load i32, ptr %9, align 4
  %64 = icmp ne i32 %63, 0
  %65 = load i32, ptr %10, align 4
  %66 = icmp ne i32 %65, 0
  %or.cond3 = select i1 %64, i1 %66, i1 false
  br i1 %or.cond3, label %67, label %75

67:                                               ; preds = %62
  %68 = load i32, ptr @hf_mbim_context_user_name, align 4
  %69 = add i32 %63, %3
  %70 = call ptr @proto_tree_add_item(ptr noundef %2, i32 noundef %68, ptr noundef %0, i32 noundef %69, i32 noundef %65, i32 noundef -2147483644) #10
  %71 = load i32, ptr %10, align 4
  %72 = icmp ugt i32 %71, 510
  br i1 %72, label %73, label %75

73:                                               ; preds = %67
  %74 = call ptr @expert_add_info(ptr noundef %1, ptr noundef %70, ptr noundef nonnull @ei_mbim_oversized_string) #10
  br label %75

75:                                               ; preds = %67, %73, %62
  %76 = load i32, ptr %11, align 4
  %77 = icmp ne i32 %76, 0
  %78 = load i32, ptr %12, align 4
  %79 = icmp ne i32 %78, 0
  %or.cond5 = select i1 %77, i1 %79, i1 false
  br i1 %or.cond5, label %80, label %88

80:                                               ; preds = %75
  %81 = load i32, ptr @hf_mbim_context_password, align 4
  %82 = add i32 %76, %3
  %83 = call ptr @proto_tree_add_item(ptr noundef %2, i32 noundef %81, ptr noundef %0, i32 noundef %82, i32 noundef %78, i32 noundef -2147483644) #10
  %84 = load i32, ptr %12, align 4
  %85 = icmp ugt i32 %84, 510
  br i1 %85, label %86, label %88

86:                                               ; preds = %80
  %87 = call ptr @expert_add_info(ptr noundef %1, ptr noundef %83, ptr noundef nonnull @ei_mbim_oversized_string) #10
  br label %88

88:                                               ; preds = %80, %86, %75
  %89 = load i32, ptr %13, align 4
  %90 = icmp ne i32 %89, 0
  %91 = load i32, ptr %14, align 4
  %92 = icmp ne i32 %91, 0
  %or.cond7 = select i1 %90, i1 %92, i1 false
  br i1 %or.cond7, label %93, label %101

93:                                               ; preds = %88
  %94 = load i32, ptr @hf_mbim_context_provider_id, align 4
  %95 = add i32 %89, %3
  %96 = call ptr @proto_tree_add_item(ptr noundef %2, i32 noundef %94, ptr noundef %0, i32 noundef %95, i32 noundef %91, i32 noundef -2147483644) #10
  %97 = load i32, ptr %14, align 4
  %98 = icmp ugt i32 %97, 12
  br i1 %98, label %99, label %101

99:                                               ; preds = %93
  %100 = call ptr @expert_add_info(ptr noundef %1, ptr noundef %96, ptr noundef nonnull @ei_mbim_oversized_string) #10
  br label %101

101:                                              ; preds = %93, %99, %88
  ret void
}